; Function Attrs: mustprogress uwtable
define void @_ZNK10open_spiel17morpion_solitaire12MorpionState8ToStringB5cxx11Ev(ptr dead_on_unwind noalias nonnull writable sret(%"class.std::__cxx11::basic_string") align 8 %0, ptr nocapture noundef nonnull readonly align 8 dereferenceable(880) %1) unnamed_addr #3 align 2 personality ptr @__gxx_personality_v0 {
  %3 = alloca %"class.absl::debian2::AlphaNum", align 8
  %4 = alloca %"class.absl::debian2::AlphaNum", align 8
  tail call void @_ZNSt7__cxx1112basic_stringIcSt11char_traitsIcESaIcEEC1Ev(ptr noundef nonnull align 8 dereferenceable(32) %0) #24
  %5 = getelementptr inbounds nuw i8, ptr %1, i64 60
  %6 = getelementptr inbounds nuw i8, ptr %3, i64 16
  %7 = ptrtoint ptr %6 to i64
  %8 = getelementptr inbounds nuw i8, ptr %3, i64 8
  %9 = getelementptr inbounds nuw i8, ptr %4, i64 8
  br label %.preheader

.preheader:                                       ; preds = %2, %24
  %indvars.iv13 = phi i64 [ 0, %2 ], [ %indvars.iv.next14, %24 ]
  %10 = mul nuw nsw i64 %indvars.iv13, 13
  br label %11

11:                                               ; preds = %.preheader, %21
  %indvars.iv = phi i64 [ 0, %.preheader ], [ %indvars.iv.next, %21 ]
  %12 = add nuw nsw i64 %indvars.iv, %10
  %13 = getelementptr inbounds [169 x i32], ptr %5, i64 0, i64 %12
  %14 = load i32, ptr %13, align 4
  %15 = invoke noundef ptr @_ZN4absl7debian216numbers_internal15FastIntToBufferEiPc(i32 noundef %14, ptr noundef nonnull %6)
          to label %.noexc unwind label %.loopexit

.noexc:                                           ; preds = %11
  %16 = ptrtoint ptr %15 to i64
  %17 = sub i64 %16, %7
  store ptr %6, ptr %3, align 8
  %18 = icmp sgt i64 %17, -1
  br i1 %18, label %20, label %19

19:                                               ; preds = %.noexc
  call void @llvm.trap()
  unreachable

20:                                               ; preds = %.noexc
  store i64 %17, ptr %8, align 8
  invoke void @_ZN4absl7debian29StrAppendEPNSt7__cxx1112basic_stringIcSt11char_traitsIcESaIcEEERKNS0_8AlphaNumE(ptr noundef nonnull %0, ptr noundef nonnull align 8 dereferenceable(48) %3)
          to label %21 unwind label %.loopexit

21:                                               ; preds = %20
  %indvars.iv.next = add nuw nsw i64 %indvars.iv, 1
  %exitcond.not = icmp eq i64 %indvars.iv.next, 13
  br i1 %exitcond.not, label %23, label %11, !llvm.loop !73

.loopexit:                                        ; preds = %20, %11
  %lpad.loopexit = landingpad { ptr, i32 }
          cleanup
  br label %22

.loopexit.split-lp:                               ; preds = %23
  %lpad.loopexit.split-lp = landingpad { ptr, i32 }
          cleanup
  br label %22

22:                                               ; preds = %.loopexit.split-lp, %.loopexit
  %lpad.phi = phi { ptr, i32 } [ %lpad.loopexit, %.loopexit ], [ %lpad.loopexit.split-lp, %.loopexit.split-lp ]
  call void @_ZNSt7__cxx1112basic_stringIcSt11char_traitsIcESaIcEED1Ev(ptr noundef nonnull align 8 dereferenceable(32) %0) #24
  resume { ptr, i32 } %lpad.phi

23:                                               ; preds = %21
  store ptr @.str.19, ptr %4, align 8
  store i64 1, ptr %9, align 8
  invoke void @_ZN4absl7debian29StrAppendEPNSt7__cxx1112basic_stringIcSt11char_traitsIcESaIcEEERKNS0_8AlphaNumE(ptr noundef nonnull %0, ptr noundef nonnull align 8 dereferenceable(48) %4)
          to label %24 unwind label %.loopexit.split-lp

24:                                               ; preds = %23
  %indvars.iv.next14 = add nuw nsw i64 %indvars.iv13, 1
  %exitcond16.not = icmp eq i64 %indvars.iv.next14, 13
  br i1 %exitcond16.not, label %25, label %.preheader, !llvm.loop !74

25:                                               ; preds = %24
  ret void
}